target datalayout = "e-m:e-p270:32:32-p271:32:32-p272:64:64-i64:64-i128:128-f80:128-n8:16:32:64-S128"
target triple = "x86_64-pc-linux-gnu"

%struct.dlist_head = type { %struct.dlist_node }
%struct.dlist_node = type { ptr, ptr }

@dsm_control_handle = internal global i32 0, align 4
@dsm_control_impl_private = internal global ptr null, align 8
@dsm_control_mapped_size = internal global i64 0, align 8
@dsm_control = internal global ptr null, align 8
@dsm_segment_list = internal global %struct.dlist_head { %struct.dlist_node { ptr @dsm_segment_list, ptr @dsm_segment_list } }, align 8

; Function Attrs: inlinehint nounwind uwtable
define internal ptr @dlist_head_element_off(ptr noundef %0, i64 noundef %1) #4 {
  %3 = alloca ptr, align 8
  %4 = alloca i64, align 8
  store ptr %0, ptr %3, align 8
  store i64 %1, ptr %4, align 8
  %5 = load ptr, ptr %3, align 8
  %6 = getelementptr inbounds nuw %struct.dlist_head, ptr %5, i32 0, i32 0
  %7 = getelementptr inbounds nuw %struct.dlist_node, ptr %6, i32 0, i32 1
  %8 = load ptr, ptr %7, align 8
  %9 = load i64, ptr %4, align 8
  %10 = sub i64 0, %9
  %11 = getelementptr inbounds i8, ptr %8, i64 %10
  ret ptr %11
}

; Function Attrs: inlinehint nounwind uwtable
define internal zeroext i1 @dlist_is_empty(ptr noundef %0) #4 {
  %2 = alloca ptr, align 8
  store ptr %0, ptr %2, align 8
  %3 = load ptr, ptr %2, align 8
  %4 = getelementptr inbounds nuw %struct.dlist_head, ptr %3, i32 0, i32 0
  %5 = getelementptr inbounds nuw %struct.dlist_node, ptr %4, i32 0, i32 1
  %6 = load ptr, ptr %5, align 8
  %7 = icmp eq ptr %6, null
  br i1 %7, label %16, label %8

8:                                                ; preds = %1
  %9 = load ptr, ptr %2, align 8
  %10 = getelementptr inbounds nuw %struct.dlist_head, ptr %9, i32 0, i32 0
  %11 = getelementptr inbounds nuw %struct.dlist_node, ptr %10, i32 0, i32 1
  %12 = load ptr, ptr %11, align 8
  %13 = load ptr, ptr %2, align 8
  %14 = getelementptr inbounds nuw %struct.dlist_head, ptr %13, i32 0, i32 0
  %15 = icmp eq ptr %12, %14
  br label %16

16:                                               ; preds = %8, %1
  %17 = phi i1 [ true, %1 ], [ %15, %8 ]
  ret i1 %17
}

; Function Attrs: nounwind uwtable
define dso_local void @dsm_detach_all() #0 {
  %1 = alloca ptr, align 8
  %2 = alloca ptr, align 8
  %3 = alloca i32, align 4
  call void @llvm.lifetime.start.p0(i64 8, ptr %1) #8
  %4 = load ptr, ptr @dsm_control, align 8
  store ptr %4, ptr %1, align 8
  br label %5

5:                                                ; preds = %11, %0
  %6 = call zeroext i1 @dlist_is_empty(ptr noundef @dsm_segment_list)
  %7 = xor i1 %6, true
  br i1 %7, label %8, label %14

8:                                                ; preds = %5
  call void @llvm.lifetime.start.p0(i64 8, ptr %2) #8
  br label %9

9:                                                ; preds = %8
  br label %10

10:                                               ; preds = %9
  br label %11

11:                                               ; preds = %10
  store i32 1, ptr %3, align 4
  %12 = call ptr @dlist_head_element_off(ptr noundef @dsm_segment_list, i64 noundef 0)
  store ptr %12, ptr %2, align 8
  %13 = load ptr, ptr %2, align 8
  call void @dsm_detach(ptr noundef %13)
  call void @llvm.lifetime.end.p0(i64 8, ptr %2) #8
  br label %5, !llvm.loop !16

14:                                               ; preds = %5
  %15 = load ptr, ptr %1, align 8
  %16 = icmp ne ptr %15, null
  br i1 %16, label %17, label %20

17:                                               ; preds = %14
  %18 = load i32, ptr @dsm_control_handle, align 4
  %19 = call zeroext i1 @dsm_impl_op(i32 noundef 2, i32 noundef %18, i64 noundef 0, ptr noundef @dsm_control_impl_private, ptr noundef %1, ptr noundef @dsm_control_mapped_size, i32 noundef 21)
  br label %20

20:                                               ; preds = %17, %14
  call void @llvm.lifetime.end.p0(i64 8, ptr %1) #8
  ret void
}