; Function Attrs: nounwind uwtable
define dso_local void @dsm_detach_all() local_unnamed_addr #0 {
  %1 = alloca ptr, align 8
  call void @llvm.lifetime.start.p0(i64 8, ptr nonnull %1) #12
  %2 = load ptr, ptr @dsm_control, align 8
  store ptr %2, ptr %1, align 8
  %3 = load ptr, ptr getelementptr inbounds nuw (i8, ptr @dsm_segment_list, i64 8), align 8
  %4 = icmp eq ptr %3, null
  %5 = icmp eq ptr %3, @dsm_segment_list
  %spec.select.i1 = or i1 %4, %5
  br i1 %spec.select.i1, label %._crit_edge, label %.lr.ph

.lr.ph:                                           ; preds = %0, %.lr.ph
  %6 = phi ptr [ %7, %.lr.ph ], [ %3, %0 ]
  tail call void @dsm_detach(ptr noundef nonnull %6)
  %7 = load ptr, ptr getelementptr inbounds nuw (i8, ptr @dsm_segment_list, i64 8), align 8
  %8 = icmp eq ptr %7, null
  %9 = icmp eq ptr %7, @dsm_segment_list
  %spec.select.i = or i1 %8, %9
  br i1 %spec.select.i, label %._crit_edge, label %.lr.ph, !llvm.loop !15

._crit_edge:                                      ; preds = %.lr.ph, %0
  %.not = icmp eq ptr %2, null
  br i1 %.not, label %13, label %10

10:                                               ; preds = %._crit_edge
  %11 = load i32, ptr @dsm_control_handle, align 4
  %12 = call zeroext i1 @dsm_impl_op(i32 noundef 2, i32 noundef %11, i64 noundef 0, ptr noundef nonnull @dsm_control_impl_private, ptr noundef nonnull %1, ptr noundef nonnull @dsm_control_mapped_size, i32 noundef 21) #12
  br label %13

13:                                               ; preds = %10, %._crit_edge
  call void @llvm.lifetime.end.p0(i64 8, ptr nonnull %1) #12
  ret void
}